Certificate:
    Data:
        Version: 3 (0x2)
        Serial Number:
            cd:de:6b:90:91:b4:e0:10
        Signature Algorithm: sha1WithRSAEncryption
        Issuer: C=CZ, ST=Czech Republic, L=Prague, O=Whoknows Ltd., OU=PHP Developer, CN=paul.saparov.info/emailAddress=saparov@example.com
        Validity
            Not Before: Apr 12 15:44:38 2008 GMT
            Not After : Apr 10 15:44:38 2018 GMT
        Subject: C=CZ, ST=Czech Republic, L=Prague, O=Whoknows Ltd., OU=PHP Developer, CN=paul.saparov.info/emailAddress=saparov@example.com
        Subject Public Key Info:
            Public Key Algorithm: rsaEncryption
            RSA Public Key: (1024 bit)
                Modulus (1024 bit):
                    00:b4:2e:be:c5:1a:b7:c2:3d:07:05:0d:28:10:00:
                    5b:c8:82:50:bd:ee:cb:95:3c:01:18:cf:d1:d2:b5:
                    6b:b8:46:73:e6:7d:5e:f5:ea:7d:3f:71:b7:3e:15:
                    5d:61:6a:45:b8:c9:97:e4:8b:85:df:43:20:1a:b6:
                    c2:88:7b:84:78:c3:bf:43:77:54:89:bf:bf:d2:ce:
                    98:81:3c:d5:d8:f9:07:c1:d6:61:99:94:34:09:b5:
                    5d:a7:fe:7f:c9:d4:dc:02:82:44:8d:76:da:6b:ab:
                    7f:12:a2:b3:48:0f:b7:fa:16:74:8b:56:67:f7:34:
                    7e:ed:a5:96:50:6b:78:8e:91
                Exponent: 65537 (0x10001)
        X509v3 extensions:
            X509v3 Subject Key Identifier: 
                B2:D5:13:81:C8:A9:C5:29:6D:3B:08:BA:72:E5:A6:C9:AB:54:0C:D1
            X509v3 Authority Key Identifier: 
                keyid:B2:D5:13:81:C8:A9:C5:29:6D:3B:08:BA:72:E5:A6:C9:AB:54:0C:D1
                DirName:/C=CZ/ST=Czech Republic/L=Prague/O=Whoknows Ltd./OU=PHP Developer/CN=paul.saparov.info/emailAddress=saparov@example.com
                serial:CD:DE:6B:90:91:B4:E0:10

            X509v3 Basic Constraints: 
                CA:TRUE
    Signature Algorithm: sha1WithRSAEncryption
        79:21:10:a3:2a:13:db:b0:d8:38:31:b0:49:59:8c:e5:f6:b5:
        44:08:0d:b8:02:e9:bf:8d:a2:e7:a1:e0:8b:90:70:23:0d:2c:
        44:49:fc:a9:71:89:84:70:0f:f2:00:4c:f6:35:02:3b:ab:cc:
        e2:7f:7b:e7:4e:31:b5:e0:4f:4f:bc:36:ca:cd:43:ec:32:8c:
        86:21:ff:f0:9b:27:68:df:3d:37:78:0b:86:bc:10:2d:9b:f3:
        d2:c4:fa:35:93:33:0f:63:35:5a:c5:48:62:bb:99:3f:c1:4c:
        69:dc:6e:44:a1:32:37:e9:e2:60:c0:1d:f7:0b:20:c6:67:85:
        a7:7a
-----BEGIN CERTIFICATE-----
MIID4DCCA0mgAwIBAgIJAM3ea5CRtOAQMA0GCSqGSIb3DQEBBQUAMIGnMQswCQYD
VQQGEwJDWjEXMBUGA1UECBMOQ3plY2ggUmVwdWJsaWMxDzANBgNVBAcTBlByYWd1
ZTEWMBQGA1UEChMNV2hva25vd3MgTHRkLjEWMBQGA1UECxMNUEhQIERldmVsb3Bl
cjEaMBgGA1UEAxMRcGF1bC5zYXBhcm92LmluZm8xIjAgBgkqhkiG9w0BCQEWE3Nh
cGFyb3ZAZXhhbXBsZS5jb20wHhcNMDgwNDEyMTU0NDM4WhcNMTgwNDEwMTU0NDM4
WjCBpzELMAkGA1UEBhMCQ1oxFzAVBgNVBAgTDkN6ZWNoIFJlcHVibGljMQ8wDQYD
VQQHEwZQcmFndWUxFjAUBgNVBAoTDVdob2tub3dzIEx0ZC4xFjAUBgNVBAsTDVBI
UCBEZXZlbG9wZXIxGjAYBgNVBAMTEXBhdWwuc2FwYXJvdi5pbmZvMSIwIAYJKoZI
hvcNAQkBFhNzYXBhcm92QGV4YW1wbGUuY29tMIGfMA0GCSqGSIb3DQEBAQUAA4GN
ADCBiQKBgQC0Lr7FGrfCPQcFDSgQAFvIglC97suVPAEYz9HStWu4RnPmfV716n0/
cbc+FV1hakW4yZfki4XfQyAatsKIe4R4w79Dd1SJv7/SzpiBPNXY+QfB1mGZlDQJ
tV2n/n/J1NwCgkSNdtprq38SorNID7f6FnSLVmf3NH7tpZZQa3iOkQIDAQABo4IB
EDCCAQwwHQYDVR0OBBYEFLLVE4HIqcUpbTsIunLlpsmrVAzRMIHcBgNVHSMEgdQw
gdGAFLLVE4HIqcUpbTsIunLlpsmrVAzRoYGtpIGqMIGnMQswCQYDVQQGEwJDWjEX
MBUGA1UECBMOQ3plY2ggUmVwdWJsaWMxDzANBgNVBAcTBlByYWd1ZTEWMBQGA1UE
ChMNV2hva25vd3MgTHRkLjEWMBQGA1UECxMNUEhQIERldmVsb3BlcjEaMBgGA1UE
AxMRcGF1bC5zYXBhcm92LmluZm8xIjAgBgkqhkiG9w0BCQEWE3NhcGFyb3ZAZXhh
bXBsZS5jb22CCQDN3muQkbTgEDAMBgNVHRMEBTADAQH/MA0GCSqGSIb3DQEBBQUA
A4GBAHkhEKMqE9uw2DgxsElZjOX2tUQIDbgC6b+Noueh4IuQcCMNLERJ/KlxiYRw
D/IATPY1AjurzOJ/e+dOMbXgT0+8NsrNQ+wyjIYh//CbJ2jfPTd4C4a8EC2b89LE
+jWTMw9jNVrFSGK7mT/BTGncbkShMjfp4mDAHfcLIMZnhad6
-----END CERTIFICATE-----
